target datalayout = "e-m:e-p270:32:32-p271:32:32-p272:64:64-i64:64-i128:128-f80:128-n8:16:32:64-S128"
target triple = "x86_64-pc-linux-gnu"

%struct.ggml_backend_buffer_type = type { %struct.ggml_backend_buffer_type_i, ptr, ptr }
%struct.ggml_backend_buffer_type_i = type { ptr, ptr, ptr, ptr, ptr, ptr }

; Function Attrs: mustprogress uwtable
define zeroext i1 @ggml_backend_buft_is_host(ptr noundef %0) #0 {
  %2 = alloca i1, align 1
  %3 = alloca ptr, align 8
  store ptr %0, ptr %3, align 8, !tbaa !3
  %4 = load ptr, ptr %3, align 8, !tbaa !3
  %5 = getelementptr inbounds nuw %struct.ggml_backend_buffer_type, ptr %4, i32 0, i32 0
  %6 = getelementptr inbounds nuw %struct.ggml_backend_buffer_type_i, ptr %5, i32 0, i32 5
  %7 = load ptr, ptr %6, align 8, !tbaa !31
  %8 = icmp ne ptr %7, null
  br i1 %8, label %9, label %16

9:                                                ; preds = %1
  %10 = load ptr, ptr %3, align 8, !tbaa !3
  %11 = getelementptr inbounds nuw %struct.ggml_backend_buffer_type, ptr %10, i32 0, i32 0
  %12 = getelementptr inbounds nuw %struct.ggml_backend_buffer_type_i, ptr %11, i32 0, i32 5
  %13 = load ptr, ptr %12, align 8, !tbaa !31
  %14 = load ptr, ptr %3, align 8, !tbaa !3
  %15 = call noundef zeroext i1 %13(ptr noundef %14)
  store i1 %15, ptr %2, align 1
  br label %17

16:                                               ; preds = %1
  store i1 false, ptr %2, align 1
  br label %17

17:                                               ; preds = %16, %9
  %18 = load i1, ptr %2, align 1
  ret i1 %18
}