; Function Attrs: mustprogress uwtable
define noundef zeroext i1 @ggml_backend_buft_is_host(ptr noundef %0) local_unnamed_addr #0 {
  %2 = getelementptr inbounds nuw i8, ptr %0, i64 40
  %3 = load ptr, ptr %2, align 8, !tbaa !25
  %.not = icmp eq ptr %3, null
  br i1 %.not, label %6, label %4

4:                                                ; preds = %1
  %5 = tail call noundef zeroext i1 %3(ptr noundef nonnull %0)
  br label %6

6:                                                ; preds = %1, %4
  %.0 = phi i1 [ %5, %4 ], [ false, %1 ]
  ret i1 %.0
}